target datalayout = "e-m:e-p270:32:32-p271:32:32-p272:64:64-i64:64-i128:128-f80:128-n8:16:32:64-S128"
target triple = "x86_64-unknown-linux-gnu"

%"class.cvc5::context::Context" = type { ptr, %"class.std::vector", ptr, ptr }
%"class.std::vector" = type { %"struct.std::_Vector_base" }
%"struct.std::_Vector_base" = type { %"struct.std::_Vector_base<cvc5::context::Scope *, std::allocator<cvc5::context::Scope *>>::_Vector_impl" }
%"struct.std::_Vector_base<cvc5::context::Scope *, std::allocator<cvc5::context::Scope *>>::_Vector_impl" = type { %"struct.std::_Vector_base<cvc5::context::Scope *, std::allocator<cvc5::context::Scope *>>::_Vector_impl_data" }
%"struct.std::_Vector_base<cvc5::context::Scope *, std::allocator<cvc5::context::Scope *>>::_Vector_impl_data" = type { ptr, ptr, ptr }
%"class.cvc5::context::Scope" = type { ptr, ptr, i32, ptr, %"class.std::vector.10" }
%"class.std::vector.10" = type { %"struct.std::_Vector_base.11" }
%"struct.std::_Vector_base.11" = type { %"struct.std::_Vector_base<cvc5::context::ContextObj *, std::allocator<cvc5::context::ContextObj *>>::_Vector_impl" }
%"struct.std::_Vector_base<cvc5::context::ContextObj *, std::allocator<cvc5::context::ContextObj *>>::_Vector_impl" = type { %"struct.std::_Vector_base<cvc5::context::ContextObj *, std::allocator<cvc5::context::ContextObj *>>::_Vector_impl_data" }
%"struct.std::_Vector_base<cvc5::context::ContextObj *, std::allocator<cvc5::context::ContextObj *>>::_Vector_impl_data" = type { ptr, ptr, ptr }
%"class.cvc5::context::ContextObj" = type { ptr, ptr, ptr, ptr, ptr }
%"class.__gnu_cxx::__normal_iterator" = type { ptr }

; Function Attrs: mustprogress nounwind uwtable
define linkonce_odr hidden void @_ZN9__gnu_cxx17__normal_iteratorIPKPN4cvc57context5ScopeESt6vectorIS4_SaIS4_EEEC2ERKS6_(ptr noundef nonnull align 8 dereferenceable(8) %this, ptr noundef nonnull align 8 dereferenceable(8) %__i) unnamed_addr #5 comdat align 2 {
entry:
  %this.addr = alloca ptr, align 8
  %__i.addr = alloca ptr, align 8
  store ptr %this, ptr %this.addr, align 8
  store ptr %__i, ptr %__i.addr, align 8
  %this1 = load ptr, ptr %this.addr, align 8
  %_M_current = getelementptr inbounds %"class.__gnu_cxx::__normal_iterator", ptr %this1, i32 0, i32 0
  %0 = load ptr, ptr %__i.addr, align 8
  %1 = load ptr, ptr %0, align 8
  store ptr %1, ptr %_M_current, align 8
  ret void
}

; Function Attrs: mustprogress nounwind uwtable
define linkonce_odr hidden noundef nonnull align 8 dereferenceable(8) ptr @_ZNK9__gnu_cxx17__normal_iteratorIPKPN4cvc57context5ScopeESt6vectorIS4_SaIS4_EEEdeEv(ptr noundef nonnull align 8 dereferenceable(8) %this) #5 comdat align 2 {
entry:
  %this.addr = alloca ptr, align 8
  store ptr %this, ptr %this.addr, align 8
  %this1 = load ptr, ptr %this.addr, align 8
  %_M_current = getelementptr inbounds %"class.__gnu_cxx::__normal_iterator", ptr %this1, i32 0, i32 0
  %0 = load ptr, ptr %_M_current, align 8
  ret ptr %0
}

; Function Attrs: mustprogress nounwind uwtable
define linkonce_odr hidden ptr @_ZNK9__gnu_cxx17__normal_iteratorIPKPN4cvc57context5ScopeESt6vectorIS4_SaIS4_EEEmiEl(ptr noundef nonnull align 8 dereferenceable(8) %this, i64 noundef %__n) #5 comdat align 2 {
entry:
  %retval = alloca %"class.__gnu_cxx::__normal_iterator", align 8
  %this.addr = alloca ptr, align 8
  %__n.addr = alloca i64, align 8
  %ref.tmp = alloca ptr, align 8
  store ptr %this, ptr %this.addr, align 8
  store i64 %__n, ptr %__n.addr, align 8
  %this1 = load ptr, ptr %this.addr, align 8
  %_M_current = getelementptr inbounds %"class.__gnu_cxx::__normal_iterator", ptr %this1, i32 0, i32 0
  %0 = load ptr, ptr %_M_current, align 8
  %1 = load i64, ptr %__n.addr, align 8
  %idx.neg = sub i64 0, %1
  %add.ptr = getelementptr inbounds ptr, ptr %0, i64 %idx.neg
  store ptr %add.ptr, ptr %ref.tmp, align 8
  call void @_ZN9__gnu_cxx17__normal_iteratorIPKPN4cvc57context5ScopeESt6vectorIS4_SaIS4_EEEC2ERKS6_(ptr noundef nonnull align 8 dereferenceable(8) %retval, ptr noundef nonnull align 8 dereferenceable(8) %ref.tmp) #3
  %coerce.dive = getelementptr inbounds %"class.__gnu_cxx::__normal_iterator", ptr %retval, i32 0, i32 0
  %2 = load ptr, ptr %coerce.dive, align 8
  ret ptr %2
}

; Function Attrs: mustprogress nounwind uwtable
define linkonce_odr hidden ptr @_ZNKSt6vectorIPN4cvc57context5ScopeESaIS3_EE3endEv(ptr noundef nonnull align 8 dereferenceable(24) %this) #5 comdat align 2 {
entry:
  %retval = alloca %"class.__gnu_cxx::__normal_iterator", align 8
  %this.addr = alloca ptr, align 8
  store ptr %this, ptr %this.addr, align 8
  %this1 = load ptr, ptr %this.addr, align 8
  %_M_impl = getelementptr inbounds %"struct.std::_Vector_base", ptr %this1, i32 0, i32 0
  %_M_finish = getelementptr inbounds %"struct.std::_Vector_base<cvc5::context::Scope *, std::allocator<cvc5::context::Scope *>>::_Vector_impl_data", ptr %_M_impl, i32 0, i32 1
  call void @_ZN9__gnu_cxx17__normal_iteratorIPKPN4cvc57context5ScopeESt6vectorIS4_SaIS4_EEEC2ERKS6_(ptr noundef nonnull align 8 dereferenceable(8) %retval, ptr noundef nonnull align 8 dereferenceable(8) %_M_finish) #3
  %coerce.dive = getelementptr inbounds %"class.__gnu_cxx::__normal_iterator", ptr %retval, i32 0, i32 0
  %0 = load ptr, ptr %coerce.dive, align 8
  ret ptr %0
}

; Function Attrs: mustprogress nounwind uwtable
define linkonce_odr hidden noundef nonnull align 8 dereferenceable(8) ptr @_ZNKSt6vectorIPN4cvc57context5ScopeESaIS3_EE4backEv(ptr noundef nonnull align 8 dereferenceable(24) %this) #5 comdat align 2 {
entry:
  %this.addr = alloca ptr, align 8
  %ref.tmp = alloca %"class.__gnu_cxx::__normal_iterator", align 8
  %ref.tmp2 = alloca %"class.__gnu_cxx::__normal_iterator", align 8
  store ptr %this, ptr %this.addr, align 8
  %this1 = load ptr, ptr %this.addr, align 8
  %call = call ptr @_ZNKSt6vectorIPN4cvc57context5ScopeESaIS3_EE3endEv(ptr noundef nonnull align 8 dereferenceable(24) %this1) #3
  %coerce.dive = getelementptr inbounds %"class.__gnu_cxx::__normal_iterator", ptr %ref.tmp2, i32 0, i32 0
  store ptr %call, ptr %coerce.dive, align 8
  %call3 = call ptr @_ZNK9__gnu_cxx17__normal_iteratorIPKPN4cvc57context5ScopeESt6vectorIS4_SaIS4_EEEmiEl(ptr noundef nonnull align 8 dereferenceable(8) %ref.tmp2, i64 noundef 1) #3
  %coerce.dive4 = getelementptr inbounds %"class.__gnu_cxx::__normal_iterator", ptr %ref.tmp, i32 0, i32 0
  store ptr %call3, ptr %coerce.dive4, align 8
  %call5 = call noundef nonnull align 8 dereferenceable(8) ptr @_ZNK9__gnu_cxx17__normal_iteratorIPKPN4cvc57context5ScopeESt6vectorIS4_SaIS4_EEEdeEv(ptr noundef nonnull align 8 dereferenceable(8) %ref.tmp) #3
  ret ptr %call5
}

; Function Attrs: mustprogress nounwind uwtable
define linkonce_odr hidden void @_ZN4cvc57context5Scope10addToChainEPNS0_10ContextObjE(ptr noundef nonnull align 8 dereferenceable(56) %this, ptr noundef %pContextObj) #5 comdat align 2 {
entry:
  %this.addr = alloca ptr, align 8
  %pContextObj.addr = alloca ptr, align 8
  store ptr %this, ptr %this.addr, align 8
  store ptr %pContextObj, ptr %pContextObj.addr, align 8
  %this1 = load ptr, ptr %this.addr, align 8
  %d_pContextObjList = getelementptr inbounds %"class.cvc5::context::Scope", ptr %this1, i32 0, i32 3
  %0 = load ptr, ptr %d_pContextObjList, align 8
  %cmp = icmp ne ptr %0, null
  br i1 %cmp, label %if.then, label %if.end

if.then:                                          ; preds = %entry
  %1 = load ptr, ptr %pContextObj.addr, align 8
  %call = call noundef nonnull align 8 dereferenceable(8) ptr @_ZN4cvc57context10ContextObj4nextEv(ptr noundef nonnull align 8 dereferenceable(40) %1)
  %d_pContextObjList2 = getelementptr inbounds %"class.cvc5::context::Scope", ptr %this1, i32 0, i32 3
  %2 = load ptr, ptr %d_pContextObjList2, align 8
  %call3 = call noundef nonnull align 8 dereferenceable(8) ptr @_ZN4cvc57context10ContextObj4prevEv(ptr noundef nonnull align 8 dereferenceable(40) %2)
  store ptr %call, ptr %call3, align 8
  br label %if.end

if.end:                                           ; preds = %if.then, %entry
  %d_pContextObjList4 = getelementptr inbounds %"class.cvc5::context::Scope", ptr %this1, i32 0, i32 3
  %3 = load ptr, ptr %d_pContextObjList4, align 8
  %4 = load ptr, ptr %pContextObj.addr, align 8
  %call5 = call noundef nonnull align 8 dereferenceable(8) ptr @_ZN4cvc57context10ContextObj4nextEv(ptr noundef nonnull align 8 dereferenceable(40) %4)
  store ptr %3, ptr %call5, align 8
  %d_pContextObjList6 = getelementptr inbounds %"class.cvc5::context::Scope", ptr %this1, i32 0, i32 3
  %5 = load ptr, ptr %pContextObj.addr, align 8
  %call7 = call noundef nonnull align 8 dereferenceable(8) ptr @_ZN4cvc57context10ContextObj4prevEv(ptr noundef nonnull align 8 dereferenceable(40) %5)
  store ptr %d_pContextObjList6, ptr %call7, align 8
  %6 = load ptr, ptr %pContextObj.addr, align 8
  %d_pContextObjList8 = getelementptr inbounds %"class.cvc5::context::Scope", ptr %this1, i32 0, i32 3
  store ptr %6, ptr %d_pContextObjList8, align 8
  ret void
}

; Function Attrs: mustprogress nounwind uwtable
define linkonce_odr hidden noundef ptr @_ZNK4cvc57context7Context11getTopScopeEv(ptr noundef nonnull align 8 dereferenceable(48) %this) #5 comdat align 2 {
entry:
  %this.addr = alloca ptr, align 8
  store ptr %this, ptr %this.addr, align 8
  %this1 = load ptr, ptr %this.addr, align 8
  %d_scopeList = getelementptr inbounds %"class.cvc5::context::Context", ptr %this1, i32 0, i32 1
  %call = call noundef nonnull align 8 dereferenceable(8) ptr @_ZNKSt6vectorIPN4cvc57context5ScopeESaIS3_EE4backEv(ptr noundef nonnull align 8 dereferenceable(24) %d_scopeList) #3
  %0 = load ptr, ptr %call, align 8
  ret ptr %0
}

; Function Attrs: mustprogress nounwind uwtable
define linkonce_odr hidden noundef ptr @_ZNK4cvc57context5Scope10getContextEv(ptr noundef nonnull align 8 dereferenceable(56) %this) #5 comdat align 2 {
entry:
  %this.addr = alloca ptr, align 8
  store ptr %this, ptr %this.addr, align 8
  %this1 = load ptr, ptr %this.addr, align 8
  %d_pContext = getelementptr inbounds %"class.cvc5::context::Scope", ptr %this1, i32 0, i32 0
  %0 = load ptr, ptr %d_pContext, align 8
  ret ptr %0
}

; Function Attrs: mustprogress nounwind uwtable
define linkonce_odr hidden noundef nonnull align 8 dereferenceable(8) ptr @_ZN4cvc57context10ContextObj4prevEv(ptr noundef nonnull align 8 dereferenceable(40) %this) #5 comdat align 2 {
entry:
  %this.addr = alloca ptr, align 8
  store ptr %this, ptr %this.addr, align 8
  %this1 = load ptr, ptr %this.addr, align 8
  %d_ppContextObjPrev = getelementptr inbounds %"class.cvc5::context::ContextObj", ptr %this1, i32 0, i32 4
  ret ptr %d_ppContextObjPrev
}

; Function Attrs: mustprogress nounwind uwtable
define linkonce_odr hidden noundef nonnull align 8 dereferenceable(8) ptr @_ZN4cvc57context10ContextObj4nextEv(ptr noundef nonnull align 8 dereferenceable(40) %this) #5 comdat align 2 {
entry:
  %this.addr = alloca ptr, align 8
  store ptr %this, ptr %this.addr, align 8
  %this1 = load ptr, ptr %this.addr, align 8
  %d_pContextObjNext = getelementptr inbounds %"class.cvc5::context::ContextObj", ptr %this1, i32 0, i32 3
  ret ptr %d_pContextObjNext
}

; Function Attrs: mustprogress nounwind uwtable
define linkonce_odr hidden noundef ptr @_ZNK4cvc57context5Scope6getCMMEv(ptr noundef nonnull align 8 dereferenceable(56) %this) #5 comdat align 2 {
entry:
  %this.addr = alloca ptr, align 8
  store ptr %this, ptr %this.addr, align 8
  %this1 = load ptr, ptr %this.addr, align 8
  %d_pCMM = getelementptr inbounds %"class.cvc5::context::Scope", ptr %this1, i32 0, i32 1
  %0 = load ptr, ptr %d_pCMM, align 8
  ret ptr %0
}

; Function Attrs: mustprogress uwtable
define void @_ZN4cvc57context10ContextObj6updateEv(ptr noundef nonnull align 8 dereferenceable(40) %this) #4 align 2 {
entry:
  %this.addr = alloca ptr, align 8
  %pContextObjSaved = alloca ptr, align 8
  store ptr %this, ptr %this.addr, align 8
  %this1 = load ptr, ptr %this.addr, align 8
  %d_pScope = getelementptr inbounds %"class.cvc5::context::ContextObj", ptr %this1, i32 0, i32 1
  %0 = load ptr, ptr %d_pScope, align 8
  %call = call noundef ptr @_ZNK4cvc57context5Scope6getCMMEv(ptr noundef nonnull align 8 dereferenceable(56) %0)
  %vtable = load ptr, ptr %this1, align 8
  %vfn = getelementptr inbounds ptr, ptr %vtable, i64 0
  %1 = load ptr, ptr %vfn, align 8
  %call2 = call noundef ptr %1(ptr noundef nonnull align 8 dereferenceable(40) %this1, ptr noundef %call)
  store ptr %call2, ptr %pContextObjSaved, align 8
  %call3 = call noundef nonnull align 8 dereferenceable(8) ptr @_ZN4cvc57context10ContextObj4nextEv(ptr noundef nonnull align 8 dereferenceable(40) %this1)
  %2 = load ptr, ptr %call3, align 8
  %cmp = icmp ne ptr %2, null
  br i1 %cmp, label %if.then, label %if.end

if.then:                                          ; preds = %entry
  %3 = load ptr, ptr %pContextObjSaved, align 8
  %call4 = call noundef nonnull align 8 dereferenceable(8) ptr @_ZN4cvc57context10ContextObj4nextEv(ptr noundef nonnull align 8 dereferenceable(40) %3)
  %call5 = call noundef nonnull align 8 dereferenceable(8) ptr @_ZN4cvc57context10ContextObj4nextEv(ptr noundef nonnull align 8 dereferenceable(40) %this1)
  %4 = load ptr, ptr %call5, align 8
  %call6 = call noundef nonnull align 8 dereferenceable(8) ptr @_ZN4cvc57context10ContextObj4prevEv(ptr noundef nonnull align 8 dereferenceable(40) %4)
  store ptr %call4, ptr %call6, align 8
  br label %if.end

if.end:                                           ; preds = %if.then, %entry
  %5 = load ptr, ptr %pContextObjSaved, align 8
  %call7 = call noundef nonnull align 8 dereferenceable(8) ptr @_ZN4cvc57context10ContextObj4prevEv(ptr noundef nonnull align 8 dereferenceable(40) %this1)
  %6 = load ptr, ptr %call7, align 8
  store ptr %5, ptr %6, align 8
  %d_pScope8 = getelementptr inbounds %"class.cvc5::context::ContextObj", ptr %this1, i32 0, i32 1
  %7 = load ptr, ptr %d_pScope8, align 8
  %call9 = call noundef ptr @_ZNK4cvc57context5Scope10getContextEv(ptr noundef nonnull align 8 dereferenceable(56) %7)
  %call10 = call noundef ptr @_ZNK4cvc57context7Context11getTopScopeEv(ptr noundef nonnull align 8 dereferenceable(48) %call9)
  %d_pScope11 = getelementptr inbounds %"class.cvc5::context::ContextObj", ptr %this1, i32 0, i32 1
  store ptr %call10, ptr %d_pScope11, align 8
  %8 = load ptr, ptr %pContextObjSaved, align 8
  %d_pContextObjRestore = getelementptr inbounds %"class.cvc5::context::ContextObj", ptr %this1, i32 0, i32 2
  store ptr %8, ptr %d_pContextObjRestore, align 8
  %d_pScope12 = getelementptr inbounds %"class.cvc5::context::ContextObj", ptr %this1, i32 0, i32 1
  %9 = load ptr, ptr %d_pScope12, align 8
  call void @_ZN4cvc57context5Scope10addToChainEPNS0_10ContextObjE(ptr noundef nonnull align 8 dereferenceable(56) %9, ptr noundef %this1)
  ret void
}