; Function Attrs: mustprogress uwtable
define void @_ZN4cvc57context10ContextObj6updateEv(ptr noundef nonnull align 8 dereferenceable(40) %this) local_unnamed_addr #3 align 2 {
entry:
  %d_pScope = getelementptr inbounds i8, ptr %this, i64 8
  %0 = load ptr, ptr %d_pScope, align 8
  %d_pCMM.i = getelementptr inbounds i8, ptr %0, i64 8
  %1 = load ptr, ptr %d_pCMM.i, align 8
  %vtable = load ptr, ptr %this, align 8
  %2 = load ptr, ptr %vtable, align 8
  %call2 = tail call noundef ptr %2(ptr noundef nonnull align 8 dereferenceable(40) %this, ptr noundef %1)
  %d_pContextObjNext.i = getelementptr inbounds i8, ptr %this, i64 24
  %3 = load ptr, ptr %d_pContextObjNext.i, align 8
  %cmp.not = icmp eq ptr %3, null
  br i1 %cmp.not, label %if.end, label %if.then

if.then:                                          ; preds = %entry
  %d_pContextObjNext.i3 = getelementptr inbounds i8, ptr %call2, i64 24
  %d_ppContextObjPrev.i = getelementptr inbounds i8, ptr %3, i64 32
  store ptr %d_pContextObjNext.i3, ptr %d_ppContextObjPrev.i, align 8
  br label %if.end

if.end:                                           ; preds = %if.then, %entry
  %d_ppContextObjPrev.i5 = getelementptr inbounds i8, ptr %this, i64 32
  %4 = load ptr, ptr %d_ppContextObjPrev.i5, align 8
  store ptr %call2, ptr %4, align 8
  %5 = load ptr, ptr %d_pScope, align 8
  %6 = load ptr, ptr %5, align 8
  %_M_finish.i.i.i = getelementptr inbounds i8, ptr %6, i64 16
  %7 = load ptr, ptr %_M_finish.i.i.i, align 8
  %add.ptr.i.i.i = getelementptr inbounds i8, ptr %7, i64 -8
  %8 = load ptr, ptr %add.ptr.i.i.i, align 8
  store ptr %8, ptr %d_pScope, align 8
  %d_pContextObjRestore = getelementptr inbounds i8, ptr %this, i64 16
  store ptr %call2, ptr %d_pContextObjRestore, align 8
  %d_pContextObjList.i = getelementptr inbounds i8, ptr %8, i64 24
  %9 = load ptr, ptr %d_pContextObjList.i, align 8
  %cmp.not.i = icmp eq ptr %9, null
  br i1 %cmp.not.i, label %_ZN4cvc57context5Scope10addToChainEPNS0_10ContextObjE.exit, label %if.then.i

if.then.i:                                        ; preds = %if.end
  %d_ppContextObjPrev.i.i = getelementptr inbounds i8, ptr %9, i64 32
  store ptr %d_pContextObjNext.i, ptr %d_ppContextObjPrev.i.i, align 8
  %.pre.i = load ptr, ptr %d_pContextObjList.i, align 8
  br label %_ZN4cvc57context5Scope10addToChainEPNS0_10ContextObjE.exit

_ZN4cvc57context5Scope10addToChainEPNS0_10ContextObjE.exit: ; preds = %if.end, %if.then.i
  %10 = phi ptr [ %.pre.i, %if.then.i ], [ null, %if.end ]
  store ptr %10, ptr %d_pContextObjNext.i, align 8
  store ptr %d_pContextObjList.i, ptr %d_ppContextObjPrev.i5, align 8
  store ptr %this, ptr %d_pContextObjList.i, align 8
  ret void
}